; Function Attrs: mustprogress uwtable
define noundef i32 @_ZNK4LIEF3DEX4File7versionEv(ptr noundef nonnull align 8 dereferenceable(472) %0) local_unnamed_addr #3 align 2 personality ptr @__gxx_personality_v0 {
  %2 = alloca %"struct.std::array", align 8
  %3 = alloca %"class.LIEF::SpanStream", align 8
  %4 = getelementptr inbounds i8, ptr %0, i64 72
  %5 = tail call i64 @_ZNK4LIEF3DEX6Header5magicEv(ptr noundef nonnull align 8 dereferenceable(120) %4)
  store i64 %5, ptr %2, align 8
  call void @_ZN4LIEF10SpanStreamC1EN3tcb4spanIKhLm18446744073709551615EEE(ptr noundef nonnull align 8 dereferenceable(40) %3, ptr nonnull %2, i64 8)
  %6 = invoke noundef i32 @_ZN4LIEF3DEX7versionERNS_12BinaryStreamE(ptr noundef nonnull align 8 dereferenceable(24) %3)
          to label %7 unwind label %8

7:                                                ; preds = %1
  call void @_ZN4LIEF10SpanStreamD1Ev(ptr noundef nonnull align 8 dereferenceable(40) %3) #23
  ret i32 %6

8:                                                ; preds = %1
  %9 = landingpad { ptr, i32 }
          cleanup
  call void @_ZN4LIEF10SpanStreamD1Ev(ptr noundef nonnull align 8 dereferenceable(40) %3) #23
  resume { ptr, i32 } %9
}